; Function Attrs: mustprogress uwtable
define ptr @uhash_init_77(ptr noundef %0, ptr noundef %1, ptr noundef %2, ptr noundef %3, ptr noundef captures(none) %4) local_unnamed_addr #0 {
  %6 = load i32, ptr %4, align 4, !tbaa !3
  %7 = icmp slt i32 %6, 1
  br i1 %7, label %8, label %_ZL11_uhash_initP10UHashtablePFi8UElementEPFaS1_S1_ES5_iP10UErrorCode.exit

8:                                                ; preds = %5
  %9 = getelementptr inbounds nuw i8, ptr %0, i64 8
  store ptr %1, ptr %9, align 8, !tbaa !7
  %10 = getelementptr inbounds nuw i8, ptr %0, i64 16
  store ptr %2, ptr %10, align 8, !tbaa !13
  %11 = getelementptr inbounds nuw i8, ptr %0, i64 24
  store ptr %3, ptr %11, align 8, !tbaa !14
  %12 = getelementptr inbounds nuw i8, ptr %0, i64 32
  %13 = getelementptr inbounds nuw i8, ptr %0, i64 73
  store i8 0, ptr %13, align 1, !tbaa !15
  %14 = getelementptr inbounds nuw i8, ptr %0, i64 68
  store float 0.000000e+00, ptr %14, align 4, !tbaa !16
  %15 = getelementptr inbounds nuw i8, ptr %0, i64 64
  tail call void @llvm.memset.p0.i64(ptr noundef nonnull align 8 dereferenceable(16) %12, i8 0, i64 16, i1 false)
  store float 5.000000e-01, ptr %15, align 8, !tbaa !17
  %16 = getelementptr inbounds nuw i8, ptr %0, i64 72
  store i8 4, ptr %16, align 8, !tbaa !18
  %17 = getelementptr inbounds nuw i8, ptr %0, i64 52
  store i32 127, ptr %17, align 4, !tbaa !20
  %18 = tail call noalias dereferenceable_or_null(3048) ptr @uprv_malloc_77(i64 noundef 3048) #12
  store ptr %18, ptr %0, align 8, !tbaa !21
  %19 = icmp eq ptr %18, null
  br i1 %19, label %20, label %21

20:                                               ; preds = %8
  store i32 7, ptr %4, align 4, !tbaa !3
  br label %_ZL11_uhash_initP10UHashtablePFi8UElementEPFaS1_S1_ES5_iP10UErrorCode.exit

21:                                               ; preds = %8
  %22 = load i32, ptr %17, align 4, !tbaa !20
  %23 = sext i32 %22 to i64
  %24 = getelementptr inbounds %struct.UHashElement, ptr %18, i64 %23
  %25 = icmp sgt i32 %22, 0
  br i1 %25, label %.lr.ph.i.i, label %._crit_edge.i.i

.lr.ph.i.i:                                       ; preds = %21, %.lr.ph.i.i
  %.025.i.i = phi ptr [ %27, %.lr.ph.i.i ], [ %18, %21 ]
  %26 = getelementptr inbounds nuw i8, ptr %.025.i.i, i64 8
  tail call void @llvm.memset.p0.i64(ptr noundef nonnull align 8 dereferenceable(16) %26, i8 0, i64 16, i1 false)
  store i32 -2147483647, ptr %.025.i.i, align 8, !tbaa !22
  %27 = getelementptr inbounds nuw i8, ptr %.025.i.i, i64 24
  %28 = icmp ult ptr %27, %24
  br i1 %28, label %.lr.ph.i.i, label %._crit_edge.i.i, !llvm.loop !24

._crit_edge.i.i:                                  ; preds = %.lr.ph.i.i, %21
  %29 = getelementptr inbounds nuw i8, ptr %0, i64 48
  store i32 0, ptr %29, align 8, !tbaa !26
  %30 = sitofp i32 %22 to float
  %31 = load float, ptr %14, align 4, !tbaa !16
  %32 = fmul float %31, %30
  %33 = fptosi float %32 to i32
  %34 = getelementptr inbounds nuw i8, ptr %0, i64 60
  store i32 %33, ptr %34, align 4, !tbaa !27
  %35 = load float, ptr %15, align 8, !tbaa !17
  %36 = fmul float %35, %30
  %37 = fptosi float %36 to i32
  %38 = getelementptr inbounds nuw i8, ptr %0, i64 56
  store i32 %37, ptr %38, align 8, !tbaa !28
  %.pre.i = load i32, ptr %4, align 4, !tbaa !3
  %39 = icmp slt i32 %.pre.i, 1
  %40 = select i1 %39, ptr %0, ptr null
  br label %_ZL11_uhash_initP10UHashtablePFi8UElementEPFaS1_S1_ES5_iP10UErrorCode.exit

_ZL11_uhash_initP10UHashtablePFi8UElementEPFaS1_S1_ES5_iP10UErrorCode.exit: ; preds = %5, %20, %._crit_edge.i.i
  %.0.i = phi ptr [ null, %5 ], [ null, %20 ], [ %40, %._crit_edge.i.i ]
  ret ptr %.0.i
}